Certificate:
    Data:
        Version: 3 (0x2)
        Serial Number:
            4a:1a:be:7d:08:fe:4c:f4:c4:24:2d:91:d3:7b:78:b5
    Signature Algorithm: sha256WithRSAEncryption
        Issuer: O=Docker, CN=Docker
        Validity
            Not Before: Jul 26 15:22:07 2020 GMT
            Not After : Jul 26 15:22:07 2030 GMT
        Subject: O=Docker
        Subject Public Key Info:
            Public Key Algorithm: rsaEncryption
                Public-Key: (2048 bit)
                Modulus:
                    00:c4:8a:c8:02:6d:e0:e3:99:b7:f5:f2:96:8a:9f:
                    55:e6:e3:33:80:bb:a4:c8:4d:2f:f3:e3:17:ef:57:
                    66:8d:5d:90:fa:88:b7:42:4f:ed:d2:6b:e7:05:d1:
                    2a:a5:1e:a1:75:a3:fa:d5:bd:db:93:df:96:01:db:
                    da:37:21:47:0a:83:57:58:56:d0:6c:8f:db:30:c9:
                    8f:0f:43:99:7a:96:e7:8a:25:7b:91:b1:22:97:07:
                    bb:70:ad:d7:73:ff:9b:5f:58:57:cd:94:02:e5:f5:
                    c2:81:f8:c4:b5:42:cf:78:28:6e:7e:27:ed:e7:cf:
                    8b:71:19:52:6b:aa:d3:07:3f:b7:a4:17:04:15:ca:
                    3b:55:c9:b3:86:b7:50:42:8e:e5:18:23:dc:2c:47:
                    13:bd:f1:2c:52:b9:19:37:b2:b1:0c:7e:7c:43:45:
                    9f:a3:1e:c9:a3:5e:b2:d8:cd:b1:1b:38:88:e8:6b:
                    83:fe:05:94:17:3f:80:79:5e:1f:cc:51:49:e5:5f:
                    31:07:e5:e8:f9:ae:81:4f:0e:7c:e6:9c:29:1d:da:
                    da:69:c4:59:4f:a5:2b:98:54:6d:21:f7:df:bd:db:
                    7a:18:b7:95:a3:54:5e:c8:86:eb:e7:63:05:db:9b:
                    51:d0:2d:65:81:8f:9b:57:08:52:a7:8f:f0:51:78:
                    b3:85
                Exponent: 65537 (0x10001)
        X509v3 extensions:
            X509v3 Key Usage: critical
                Digital Signature, Key Encipherment
            X509v3 Extended Key Usage: 
                TLS Web Client Authentication
            X509v3 Basic Constraints: critical
                CA:FALSE
    Signature Algorithm: sha256WithRSAEncryption
         1f:c8:79:08:76:2c:4d:2f:3e:e7:7d:fa:c3:d5:68:82:e3:99:
         52:98:b2:e4:6d:4f:cc:29:61:b4:3e:df:40:f8:11:77:9f:30:
         2c:89:12:20:63:bf:b4:94:87:9f:69:3a:59:5b:cc:5b:40:62:
         56:07:8e:48:f6:a1:25:1e:0e:3f:ad:c7:96:71:bb:d7:36:3c:
         db:91:52:fd:40:2a:6f:0e:9f:c3:00:a5:ed:b9:a1:17:be:e2:
         c6:8c:34:2e:77:f8:b9:4b:7a:03:86:75:7c:83:35:65:86:7e:
         60:f6:ad:ac:df:33:cc:a3:31:7d:19:a3:55:2e:ee:50:76:0e:
         4e:e2:52:fe:09:66:01:89:8a:80:b5:f2:f1:c3:45:7e:ce:08:
         a2:a7:3c:87:3a:88:02:45:c5:c5:0a:73:de:25:77:ab:d3:b9:
         a1:39:b6:4b:dd:be:ff:43:95:f3:8e:fb:97:43:93:c8:b7:27:
         10:88:32:94:94:d4:27:fb:47:c1:76:a3:6d:a4:32:1b:3d:30:
         af:fe:6f:a9:03:7e:45:a3:11:ca:82:49:8f:94:21:66:4f:e5:
         2d:6e:70:a7:64:c9:47:6c:e9:8c:57:86:ac:61:d6:93:b5:7a:
         7d:5c:da:9b:ed:11:89:9b:b2:6e:15:4a:ca:85:4d:88:16:aa:
         de:ed:0e:b0
-----BEGIN CERTIFICATE-----
MIIC8jCCAdqgAwIBAgIQShq+fQj+TPTEJC2R03t4tTANBgkqhkiG9w0BAQsFADAi
MQ8wDQYDVQQKEwZEb2NrZXIxDzANBgNVBAMTBkRvY2tlcjAeFw0yMDA3MjYxNTIy
MDdaFw0zMDA3MjYxNTIyMDdaMBExDzANBgNVBAoTBkRvY2tlcjCCASIwDQYJKoZI
hvcNAQEBBQADggEPADCCAQoCggEBAMSKyAJt4OOZt/XyloqfVebjM4C7pMhNL/Pj
F+9XZo1dkPqIt0JP7dJr5wXRKqUeoXWj+tW925PflgHb2jchRwqDV1hW0GyP2zDJ
jw9DmXqW54ole5GxIpcHu3Ct13P/m19YV82UAuX1woH4xLVCz3gobn4n7efPi3EZ
Umuq0wc/t6QXBBXKO1XJs4a3UEKO5Rgj3CxHE73xLFK5GTeysQx+fENFn6MeyaNe
stjNsRs4iOhrg/4FlBc/gHleH8xRSeVfMQfl6PmugU8OfOacKR3a2mnEWU+lK5hU
bSH3373behi3laNUXsiG6+djBdubUdAtZYGPm1cIUqeP8FF4s4UCAwEAAaM1MDMw
DgYDVR0PAQH/BAQDAgWgMBMGA1UdJQQMMAoGCCsGAQUFBwMCMAwGA1UdEwEB/wQC
MAAwDQYJKoZIhvcNAQELBQADggEBAB/IeQh2LE0vPud9+sPVaILjmVKYsuRtT8wp
YbQ+30D4EXefMCyJEiBjv7SUh59pOllbzFtAYlYHjkj2oSUeDj+tx5Zxu9c2PNuR
Uv1AKm8On8MApe25oRe+4saMNC53+LlLegOGdXyDNWWGfmD2razfM8yjMX0Zo1Uu
7lB2Dk7iUv4JZgGJioC18vHDRX7OCKKnPIc6iAJFxcUKc94ld6vTuaE5tkvdvv9D
lfOO+5dDk8i3JxCIMpSU1Cf7R8F2o22kMhs9MK/+b6kDfkWjEcqCSY+UIWZP5S1u
cKdkyUds6YxXhqxh1pO1en1c2pvtEYmbsm4VSsqFTYgWqt7tDrA=
-----END CERTIFICATE-----
