Certificate:
    Data:
        Version: 3 (0x2)
        Serial Number:
            e2:6c:ee:35:80:3d:bf:25:f8:47:73:df:fc:96:20:de
    Signature Algorithm: sha256WithRSAEncryption
        Issuer: O=Docker, CN=Docker
        Validity
            Not Before: Jul 26 15:22:07 2020 GMT
            Not After : Jul 26 15:22:07 2030 GMT
        Subject: O=Docker, CN=localhost
        Subject Public Key Info:
            Public Key Algorithm: rsaEncryption
                Public-Key: (2048 bit)
                Modulus:
                    00:9d:ed:51:ce:53:e3:fe:f9:44:05:4e:27:47:af:
                    0d:35:74:f4:8e:c4:4c:92:28:b7:30:7f:1c:db:b9:
                    76:ff:45:d0:5f:dd:28:92:a7:27:78:d1:1c:c9:39:
                    2c:af:b1:b4:d6:d5:70:85:f1:8e:66:bf:80:ec:f1:
                    9a:48:91:8b:cb:2d:4e:42:70:a4:35:75:70:d8:67:
                    96:ad:5c:2d:66:99:a1:6a:25:15:90:1d:24:bd:ea:
                    98:0b:99:8a:59:89:b7:d0:7d:f7:a2:90:c8:22:43:
                    8a:42:10:75:ac:91:25:73:c6:2c:01:57:7e:68:69:
                    43:39:9c:3b:15:24:6c:69:48:d1:20:86:b9:8f:b7:
                    af:58:7c:6f:f2:26:5b:c8:ea:a5:dd:9d:07:f9:0e:
                    96:45:e4:b6:87:63:f3:d0:f0:a4:23:fa:01:b1:da:
                    f1:20:72:a3:4d:8a:28:26:15:dc:d9:16:c1:32:75:
                    8e:6e:18:1b:43:41:7b:86:1e:7b:ec:81:86:a9:5d:
                    aa:5f:aa:95:ea:30:a3:71:5a:e2:e8:8d:8a:b5:fb:
                    21:e6:5f:5a:fb:86:2a:52:53:44:81:4c:f1:ea:48:
                    d3:43:21:1f:d9:a3:d8:26:e9:63:ee:55:14:d1:e5:
                    95:30:5e:bb:db:94:f4:78:e9:de:63:15:7f:c4:8b:
                    9c:79
                Exponent: 65537 (0x10001)
        X509v3 extensions:
            X509v3 Key Usage: critical
                Digital Signature, Key Encipherment
            X509v3 Basic Constraints: critical
                CA:FALSE
            X509v3 Subject Alternative Name: 
                DNS:localhost
    Signature Algorithm: sha256WithRSAEncryption
         97:28:ee:20:57:b2:0d:03:d1:67:a7:87:bd:c8:ae:5d:f4:dc:
         64:5d:eb:a1:13:27:46:77:db:1c:78:ab:18:fc:fa:80:3b:41:
         35:57:e0:e8:4b:83:57:fa:8d:e5:5d:cc:ba:8a:71:8b:7c:5b:
         fe:76:51:4c:19:bf:68:3d:95:f9:21:f2:37:28:ab:26:7b:1c:
         c9:fa:41:3c:a4:a3:8a:6c:e8:7e:52:ba:cd:5d:67:2f:12:5b:
         79:5f:a0:8f:b5:0b:56:1e:89:eb:69:1e:88:7e:79:a0:e3:c7:
         ea:c0:57:dc:db:6a:c3:ff:58:f7:16:2e:78:95:38:73:f3:ca:
         d7:58:c5:7d:c6:bb:0e:54:f8:62:b0:20:f2:c2:76:0b:28:0e:
         09:e8:16:2a:6c:5d:f6:43:7e:50:c1:99:43:0e:e9:c7:c9:5c:
         ef:59:f5:4c:86:51:46:d8:fe:b8:ab:0a:e8:bc:1f:bd:82:b6:
         d2:7b:3d:12:8f:33:70:0f:3c:49:41:92:7d:2a:0f:ad:00:99:
         bc:59:37:7a:1b:ad:6c:73:01:5f:66:8f:1c:c0:0e:c0:2b:70:
         15:96:01:4f:ca:93:36:39:e1:17:5e:0c:a6:df:10:5b:68:6b:
         82:80:4a:36:26:f2:a9:3c:aa:cb:63:89:f5:1c:74:a6:07:fe:
         04:a6:f0:bb
-----BEGIN CERTIFICATE-----
MIIDCDCCAfCgAwIBAgIRAOJs7jWAPb8l+Edz3/yWIN4wDQYJKoZIhvcNAQELBQAw
IjEPMA0GA1UEChMGRG9ja2VyMQ8wDQYDVQQDEwZEb2NrZXIwHhcNMjAwNzI2MTUy
MjA3WhcNMzAwNzI2MTUyMjA3WjAlMQ8wDQYDVQQKEwZEb2NrZXIxEjAQBgNVBAMT
CWxvY2FsaG9zdDCCASIwDQYJKoZIhvcNAQEBBQADggEPADCCAQoCggEBAJ3tUc5T
4/75RAVOJ0evDTV09I7ETJIotzB/HNu5dv9F0F/dKJKnJ3jRHMk5LK+xtNbVcIXx
jma/gOzxmkiRi8stTkJwpDV1cNhnlq1cLWaZoWolFZAdJL3qmAuZilmJt9B996KQ
yCJDikIQdayRJXPGLAFXfmhpQzmcOxUkbGlI0SCGuY+3r1h8b/ImW8jqpd2dB/kO
lkXktodj89DwpCP6AbHa8SByo02KKCYV3NkWwTJ1jm4YG0NBe4Yee+yBhqldql+q
leowo3Fa4uiNirX7IeZfWvuGKlJTRIFM8epI00MhH9mj2CbpY+5VFNHllTBeu9uU
9Hjp3mMVf8SLnHkCAwEAAaM2MDQwDgYDVR0PAQH/BAQDAgWgMAwGA1UdEwEB/wQC
MAAwFAYDVR0RBA0wC4IJbG9jYWxob3N0MA0GCSqGSIb3DQEBCwUAA4IBAQCXKO4g
V7INA9Fnp4e9yK5d9NxkXeuhEydGd9sceKsY/PqAO0E1V+DoS4NX+o3lXcy6inGL
fFv+dlFMGb9oPZX5IfI3KKsmexzJ+kE8pKOKbOh+UrrNXWcvElt5X6CPtQtWHonr
aR6Ifnmg48fqwFfc22rD/1j3Fi54lThz88rXWMV9xrsOVPhisCDywnYLKA4J6BYq
bF32Q35QwZlDDunHyVzvWfVMhlFG2P64qwrovB+9grbSez0SjzNwDzxJQZJ9Kg+t
AJm8WTd6G61scwFfZo8cwA7AK3AVlgFPypM2OeEXXgym3xBbaGuCgEo2JvKpPKrL
Y4n1HHSmB/4EpvC7
-----END CERTIFICATE-----
